	.build_version macos, 16, 0
	.section	__TEXT,__text,regular,pure_instructions
	.globl	_accumulateFlags
	.p2align	2
_accumulateFlags:
Lfunc_begin0:
	.file	1 "../tests" "17.if_else.c"
	.loc	1 4 0
	.cfi_startproc
	sub	sp, sp, #16
	.cfi_def_cfa_offset 16
Ltmp3:
	.loc	1 5 3 prologue_end
	stp	w0, wzr, [sp, #8]
	.loc	1 6 3
	tbz	w0, #31, LBB0_2
Ltmp4:
	.loc	1 7 5
	ldr	w8, [sp, #12]
	add	w8, w8, #1
	str	w8, [sp, #12]
Ltmp5:
LBB0_2:
	.loc	1 9 3
	ldp	w8, w9, [sp, #8]
	mov	w10, #4
	mov	w11, #2
	.loc	1 0 0 is_stmt 0
	cmp	w8, #0
	csel	w10, w11, w10, eq
	.loc	1 14 3 is_stmt 1
	cmp	w8, #11
	.loc	1 0 0 is_stmt 0
	add	w9, w9, w10
	str	w9, [sp, #12]
	.loc	1 14 3
	b.lt	LBB0_4
Ltmp6:
	.loc	1 15 5 is_stmt 1
	ldr	w8, [sp, #12]
	add	w8, w8, #8
	str	w8, [sp, #12]
Ltmp7:
LBB0_4:
	.loc	1 17 3
	ldr	w0, [sp, #12]
	.loc	1 17 3 epilogue_begin is_stmt 0
	add	sp, sp, #16
	ret
Ltmp8:
Lfunc_end0:
	.cfi_endproc

	.globl	_signBucket
	.p2align	2
_signBucket:
Lfunc_begin1:
	.loc	1 21 0 is_stmt 1
	.cfi_startproc
	sub	sp, sp, #16
	.cfi_def_cfa_offset 16
	mov	w8, #2
Ltmp9:
	.loc	1 23 3 prologue_end
	cmp	w0, #0
	cinc	w8, w8, ne
	csinc	w8, w8, wzr, ge
	.loc	1 21 5
	stp	w0, w8, [sp, #8]
	.loc	1 30 3
	mov	w0, w8
	.loc	1 30 3 epilogue_begin is_stmt 0
	add	sp, sp, #16
	ret
Ltmp10:
Lfunc_end1:
	.cfi_endproc

	.globl	_decadeBucket
	.p2align	2
_decadeBucket:
Lfunc_begin2:
	.loc	1 34 0 is_stmt 1
	.cfi_startproc
	sub	sp, sp, #16
	.cfi_def_cfa_offset 16
Ltmp11:
	.loc	1 36 3 prologue_end
	cmp	w0, #10
	.loc	1 34 5
	str	w0, [sp, #8]
	.loc	1 36 3
	b.ge	LBB2_2
	.loc	1 0 3 is_stmt 0
	mov	w0, wzr
	.loc	1 36 3
	b	LBB2_3
LBB2_2:
	.loc	1 38 10 is_stmt 1
	ldr	w8, [sp, #8]
	mov	w9, #2
	cmp	w8, #30
	cinc	w9, w9, ge
	cmp	w8, #20
	csinc	w0, w9, wzr, ge
LBB2_3:
	.loc	1 0 0 is_stmt 0
	str	w0, [sp, #12]
	.loc	1 45 3 epilogue_begin is_stmt 1
	add	sp, sp, #16
	ret
Ltmp12:
Lfunc_end2:
	.cfi_endproc

	.globl	_main
	.p2align	2
_main:
Lfunc_begin3:
	.loc	1 48 0
	.cfi_startproc
	sub	sp, sp, #32
	stp	x29, x30, [sp, #16]
	.cfi_def_cfa_offset 32
	.cfi_offset w30, -8
	.cfi_offset w29, -16
Ltmp13:
	.loc	1 51 3 prologue_end
	mov	w0, #-5
	.loc	1 49 3
	str	wzr, [sp, #12]
	.loc	1 51 3
	bl	_accumulateFlags
	cmp	w0, #5
	b.eq	LBB3_2
	.loc	1 0 3 is_stmt 0
	mov	w8, #1
	.loc	1 51 33
	str	w8, [sp, #12]
LBB3_2:
	.loc	1 52 3 is_stmt 1
	mov	w0, wzr
	bl	_accumulateFlags
	cmp	w0, #2
	b.eq	LBB3_4
	.loc	1 0 3 is_stmt 0
	mov	w8, #1
	.loc	1 52 32
	str	w8, [sp, #12]
LBB3_4:
	.loc	1 53 3 is_stmt 1
	mov	w0, #5
	bl	_accumulateFlags
	cmp	w0, #4
	b.eq	LBB3_6
	.loc	1 0 3 is_stmt 0
	mov	w8, #1
	.loc	1 53 32
	str	w8, [sp, #12]
LBB3_6:
	.loc	1 54 3 is_stmt 1
	mov	w0, #15
	bl	_accumulateFlags
	cmp	w0, #12
	b.eq	LBB3_8
	.loc	1 0 3 is_stmt 0
	mov	w8, #1
	.loc	1 54 34
	str	w8, [sp, #12]
LBB3_8:
	.loc	1 56 3 is_stmt 1
	mov	w0, #-1
	bl	_signBucket
	cmp	w0, #1
	b.eq	LBB3_10
	.loc	1 0 3 is_stmt 0
	mov	w8, #1
	.loc	1 56 28
	str	w8, [sp, #12]
LBB3_10:
	.loc	1 57 3 is_stmt 1
	mov	w0, wzr
	bl	_signBucket
	cmp	w0, #2
	b.eq	LBB3_12
	.loc	1 0 3 is_stmt 0
	mov	w8, #1
	.loc	1 57 27
	str	w8, [sp, #12]
LBB3_12:
	.loc	1 58 3 is_stmt 1
	mov	w0, #7
	bl	_signBucket
	cmp	w0, #3
	b.eq	LBB3_14
	.loc	1 0 3 is_stmt 0
	mov	w8, #1
	.loc	1 58 27
	str	w8, [sp, #12]
LBB3_14:
	.loc	1 60 3 is_stmt 1
	mov	w0, #5
	bl	_decadeBucket
	cbz	w0, LBB3_16
	.loc	1 0 3 is_stmt 0
	mov	w8, #1
	.loc	1 60 29
	str	w8, [sp, #12]
LBB3_16:
	.loc	1 61 3 is_stmt 1
	mov	w0, #15
	bl	_decadeBucket
	cmp	w0, #1
	b.eq	LBB3_18
	.loc	1 0 3 is_stmt 0
	mov	w8, #1
	.loc	1 61 30
	str	w8, [sp, #12]
LBB3_18:
	.loc	1 62 3 is_stmt 1
	mov	w0, #25
	bl	_decadeBucket
	cmp	w0, #2
	b.eq	LBB3_20
	.loc	1 0 3 is_stmt 0
	mov	w8, #1
	.loc	1 62 30
	str	w8, [sp, #12]
LBB3_20:
	.loc	1 63 3 is_stmt 1
	mov	w0, #35
	bl	_decadeBucket
	cmp	w0, #3
	b.eq	LBB3_22
	.loc	1 0 3 is_stmt 0
	mov	w8, #1
	.loc	1 63 30
	str	w8, [sp, #12]
LBB3_22:
	.loc	1 65 3 is_stmt 1
	ldr	w8, [sp, #12]
	.loc	1 0 0 is_stmt 0
Lloh0:
	adrp	x9, l___unnamed_1@PAGE
Lloh1:
	add	x9, x9, l___unnamed_1@PAGEOFF
	cmp	w8, #0
Lloh2:
	adrp	x8, l___unnamed_2@PAGE
Lloh3:
	add	x8, x8, l___unnamed_2@PAGEOFF
	csel	x0, x8, x9, eq
	bl	_printf
	.loc	1 70 3 epilogue_begin is_stmt 1
	ldp	x29, x30, [sp, #16]
	ldr	w0, [sp, #12]
	add	sp, sp, #32
	ret
Ltmp14:
	.loh AdrpAdd	Lloh2, Lloh3
	.loh AdrpAdd	Lloh0, Lloh1
Lfunc_end3:
	.cfi_endproc

	.section	__TEXT,__cstring,cstring_literals
l___unnamed_2:
	.asciz	"17.if_else.c PASS\n"

l___unnamed_1:
	.asciz	"17.if_else.c FAIL\n"
